; Function Attrs: mustprogress uwtable
define void @_ZN6icu_7510DateFormat11setTimeZoneERKNS_8TimeZoneE(ptr nocapture noundef nonnull readonly align 8 dereferenceable(352) %this, ptr noundef nonnull align 8 dereferenceable(72) %zone) unnamed_addr #3 align 2 {
entry:
  %fCalendar = getelementptr inbounds i8, ptr %this, i64 328
  %0 = load ptr, ptr %fCalendar, align 8
  %cmp.not = icmp eq ptr %0, null
  br i1 %cmp.not, label %if.end, label %if.then

if.then:                                          ; preds = %entry
  tail call void @_ZN6icu_758Calendar11setTimeZoneERKNS_8TimeZoneE(ptr noundef nonnull align 8 dereferenceable(618) %0, ptr noundef nonnull align 8 dereferenceable(72) %zone)
  br label %if.end

if.end:                                           ; preds = %if.then, %entry
  ret void
}